target datalayout = "e-m:e-p270:32:32-p271:32:32-p272:64:64-i64:64-i128:128-f80:128-n8:16:32:64-S128"
target triple = "x86_64-unknown-linux-gnu"

%"class.facebook::hermes::tracing::SynthTrace::TraceValue" = type { i32, %union.anon }
%union.anon = type { double }
%"struct.facebook::hermes::tracing::SynthTrace::Record" = type { ptr, %"class.std::chrono::duration" }
%"class.std::chrono::duration" = type { i64 }
%"struct.facebook::hermes::tracing::SynthTrace::ReturnMixin" = type { %"class.facebook::hermes::tracing::SynthTrace::TraceValue" }
%"struct.facebook::hermes::tracing::SynthTrace::GetPropertyNativeReturnRecord" = type { %"struct.facebook::hermes::tracing::SynthTrace::Record", %"struct.facebook::hermes::tracing::SynthTrace::ReturnMixin" }

@_ZTIN8facebook6hermes7tracing10SynthTrace6RecordE = hidden constant { ptr, ptr } { ptr getelementptr inbounds (ptr, ptr @_ZTVN10__cxxabiv117__class_type_infoE, i64 2), ptr @_ZTSN8facebook6hermes7tracing10SynthTrace6RecordE }, align 8

; Function Attrs: mustprogress nounwind uwtable
define linkonce_odr hidden void @_ZN8facebook6hermes7tracing10SynthTrace6RecordD2Ev(ptr noundef nonnull align 8 dereferenceable(16) %this) unnamed_addr #0 comdat align 2 {
entry:
  %this.addr = alloca ptr, align 8
  store ptr %this, ptr %this.addr, align 8
  ret void
}

; Function Attrs: mustprogress nounwind uwtable
define hidden noundef zeroext i1 @_ZNK8facebook6hermes7tracing10SynthTrace10TraceValueeqERKS3_(ptr noundef nonnull align 8 dereferenceable(16) %this, ptr noundef nonnull align 8 dereferenceable(16) %that) #0 align 2 {
entry:
  %retval = alloca i1, align 1
  %this.addr = alloca ptr, align 8
  %that.addr = alloca ptr, align 8
  store ptr %this, ptr %this.addr, align 8
  store ptr %that, ptr %that.addr, align 8
  %this1 = load ptr, ptr %this.addr, align 8
  %tag_ = getelementptr inbounds %"class.facebook::hermes::tracing::SynthTrace::TraceValue", ptr %this1, i32 0, i32 0
  %0 = load i32, ptr %tag_, align 8
  %1 = load ptr, ptr %that.addr, align 8
  %tag_2 = getelementptr inbounds %"class.facebook::hermes::tracing::SynthTrace::TraceValue", ptr %1, i32 0, i32 0
  %2 = load i32, ptr %tag_2, align 8
  %cmp = icmp ne i32 %0, %2
  br i1 %cmp, label %if.then, label %if.end

if.then:                                          ; preds = %entry
  store i1 false, ptr %retval, align 1
  br label %return

if.end:                                           ; preds = %entry
  %tag_3 = getelementptr inbounds %"class.facebook::hermes::tracing::SynthTrace::TraceValue", ptr %this1, i32 0, i32 0
  %3 = load i32, ptr %tag_3, align 8
  switch i32 %3, label %sw.default [
    i32 2, label %sw.bb
    i32 3, label %sw.bb8
    i32 4, label %sw.bb12
    i32 5, label %sw.bb12
    i32 6, label %sw.bb12
  ]

sw.bb:                                            ; preds = %if.end
  %val_ = getelementptr inbounds %"class.facebook::hermes::tracing::SynthTrace::TraceValue", ptr %this1, i32 0, i32 1
  %4 = load i8, ptr %val_, align 8
  %tobool = trunc i8 %4 to i1
  %conv = zext i1 %tobool to i32
  %5 = load ptr, ptr %that.addr, align 8
  %val_4 = getelementptr inbounds %"class.facebook::hermes::tracing::SynthTrace::TraceValue", ptr %5, i32 0, i32 1
  %6 = load i8, ptr %val_4, align 8
  %tobool5 = trunc i8 %6 to i1
  %conv6 = zext i1 %tobool5 to i32
  %cmp7 = icmp eq i32 %conv, %conv6
  store i1 %cmp7, ptr %retval, align 1
  br label %return

sw.bb8:                                           ; preds = %if.end
  %val_9 = getelementptr inbounds %"class.facebook::hermes::tracing::SynthTrace::TraceValue", ptr %this1, i32 0, i32 1
  %7 = load double, ptr %val_9, align 8
  %8 = load ptr, ptr %that.addr, align 8
  %val_10 = getelementptr inbounds %"class.facebook::hermes::tracing::SynthTrace::TraceValue", ptr %8, i32 0, i32 1
  %9 = load double, ptr %val_10, align 8
  %cmp11 = fcmp oeq double %7, %9
  store i1 %cmp11, ptr %retval, align 1
  br label %return

sw.bb12:                                          ; preds = %if.end, %if.end, %if.end
  %val_13 = getelementptr inbounds %"class.facebook::hermes::tracing::SynthTrace::TraceValue", ptr %this1, i32 0, i32 1
  %10 = load i64, ptr %val_13, align 8
  %11 = load ptr, ptr %that.addr, align 8
  %val_14 = getelementptr inbounds %"class.facebook::hermes::tracing::SynthTrace::TraceValue", ptr %11, i32 0, i32 1
  %12 = load i64, ptr %val_14, align 8
  %cmp15 = icmp eq i64 %10, %12
  store i1 %cmp15, ptr %retval, align 1
  br label %return

sw.default:                                       ; preds = %if.end
  store i1 true, ptr %retval, align 1
  br label %return

return:                                           ; preds = %sw.default, %sw.bb12, %sw.bb8, %sw.bb, %if.then
  %13 = load i1, ptr %retval, align 1
  ret i1 %13
}

; Function Attrs: mustprogress nounwind uwtable
define linkonce_odr hidden void @_ZN8facebook6hermes7tracing10SynthTrace6RecordC2ERKS3_(ptr noundef nonnull align 8 dereferenceable(16) %this, ptr noundef nonnull align 8 dereferenceable(16) %0) unnamed_addr #0 comdat align 2 {
entry:
  %this.addr = alloca ptr, align 8
  %.addr = alloca ptr, align 8
  store ptr %this, ptr %this.addr, align 8
  store ptr %0, ptr %.addr, align 8
  %this1 = load ptr, ptr %this.addr, align 8
  store ptr getelementptr inbounds ({ [9 x ptr] }, ptr @_ZTVN8facebook6hermes7tracing10SynthTrace6RecordE, i32 0, i32 0, i32 2), ptr %this1, align 8
  %time_ = getelementptr inbounds %"struct.facebook::hermes::tracing::SynthTrace::Record", ptr %this1, i32 0, i32 1
  %1 = load ptr, ptr %.addr, align 8
  %time_2 = getelementptr inbounds %"struct.facebook::hermes::tracing::SynthTrace::Record", ptr %1, i32 0, i32 1
  call void @llvm.memcpy.p0.p0.i64(ptr align 8 %time_, ptr align 8 %time_2, i64 8, i1 false)
  ret void
}

; Function Attrs: mustprogress nounwind uwtable
define linkonce_odr hidden void @_ZN8facebook6hermes7tracing10SynthTrace29GetPropertyNativeReturnRecordD2Ev(ptr noundef nonnull align 8 dereferenceable(32) %this) unnamed_addr #0 comdat align 2 {
entry:
  %this.addr = alloca ptr, align 8
  store ptr %this, ptr %this.addr, align 8
  %this1 = load ptr, ptr %this.addr, align 8
  call void @_ZN8facebook6hermes7tracing10SynthTrace6RecordD2Ev(ptr noundef nonnull align 8 dereferenceable(16) %this1) #13
  ret void
}

; Function Attrs: mustprogress nounwind uwtable
define hidden noundef zeroext i1 @_ZNK8facebook6hermes7tracing10SynthTrace11ReturnMixineqERKS3_(ptr noundef nonnull align 8 dereferenceable(16) %this, ptr noundef nonnull align 8 dereferenceable(16) %that) #0 align 2 {
entry:
  %this.addr = alloca ptr, align 8
  %that.addr = alloca ptr, align 8
  store ptr %this, ptr %this.addr, align 8
  store ptr %that, ptr %that.addr, align 8
  %this1 = load ptr, ptr %this.addr, align 8
  %retVal_ = getelementptr inbounds %"struct.facebook::hermes::tracing::SynthTrace::ReturnMixin", ptr %this1, i32 0, i32 0
  %0 = load ptr, ptr %that.addr, align 8
  %retVal_2 = getelementptr inbounds %"struct.facebook::hermes::tracing::SynthTrace::ReturnMixin", ptr %0, i32 0, i32 0
  %call = call noundef zeroext i1 @_ZNK8facebook6hermes7tracing10SynthTrace10TraceValueeqERKS3_(ptr noundef nonnull align 8 dereferenceable(16) %retVal_, ptr noundef nonnull align 8 dereferenceable(16) %retVal_2)
  ret i1 %call
}

; Function Attrs: mustprogress nounwind uwtable
define linkonce_odr hidden void @_ZN8facebook6hermes7tracing10SynthTrace29GetPropertyNativeReturnRecordC2ERKS3_(ptr noundef nonnull align 8 dereferenceable(32) %this, ptr noundef nonnull align 8 dereferenceable(32) %0) unnamed_addr #0 comdat align 2 {
entry:
  %this.addr = alloca ptr, align 8
  %.addr = alloca ptr, align 8
  store ptr %this, ptr %this.addr, align 8
  store ptr %0, ptr %.addr, align 8
  %this1 = load ptr, ptr %this.addr, align 8
  %1 = load ptr, ptr %.addr, align 8
  call void @_ZN8facebook6hermes7tracing10SynthTrace6RecordC2ERKS3_(ptr noundef nonnull align 8 dereferenceable(16) %this1, ptr noundef nonnull align 8 dereferenceable(16) %1) #13
  %2 = getelementptr inbounds i8, ptr %this1, i64 16
  %3 = load ptr, ptr %.addr, align 8
  %add.ptr = getelementptr inbounds i8, ptr %3, i64 16
  call void @llvm.memcpy.p0.p0.i64(ptr align 8 %2, ptr align 8 %add.ptr, i64 16, i1 false)
  store ptr getelementptr inbounds ({ [9 x ptr] }, ptr @_ZTVN8facebook6hermes7tracing10SynthTrace29GetPropertyNativeReturnRecordE, i32 0, i32 0, i32 2), ptr %this1, align 8
  ret void
}

; Function Attrs: mustprogress uwtable
define linkonce_odr hidden noundef zeroext i1 @_ZNK8facebook6hermes7tracing10SynthTrace6RecordeqERKS3_(ptr noundef nonnull align 8 dereferenceable(16) %this, ptr noundef nonnull align 8 dereferenceable(16) %that) unnamed_addr #1 comdat align 2 {
entry:
  %this.addr = alloca ptr, align 8
  %that.addr = alloca ptr, align 8
  store ptr %this, ptr %this.addr, align 8
  store ptr %that, ptr %that.addr, align 8
  %this1 = load ptr, ptr %this.addr, align 8
  %vtable = load ptr, ptr %this1, align 8
  %vfn = getelementptr inbounds ptr, ptr %vtable, i64 2
  %0 = load ptr, ptr %vfn, align 8
  %call = call noundef i32 %0(ptr noundef nonnull align 8 dereferenceable(16) %this1)
  %1 = load ptr, ptr %that.addr, align 8
  %vtable2 = load ptr, ptr %1, align 8
  %vfn3 = getelementptr inbounds ptr, ptr %vtable2, i64 2
  %2 = load ptr, ptr %vfn3, align 8
  %call4 = call noundef i32 %2(ptr noundef nonnull align 8 dereferenceable(16) %1)
  %cmp = icmp eq i32 %call, %call4
  ret i1 %cmp
}

; Function Attrs: mustprogress uwtable
define hidden noundef zeroext i1 @_ZNK8facebook6hermes7tracing10SynthTrace29GetPropertyNativeReturnRecordeqERKNS2_6RecordE(ptr noundef nonnull align 8 dereferenceable(32) %this, ptr noundef nonnull align 8 dereferenceable(16) %that) unnamed_addr #1 align 2 {
entry:
  %retval = alloca i1, align 1
  %this.addr = alloca ptr, align 8
  %that.addr = alloca ptr, align 8
  %thatCasted = alloca %"struct.facebook::hermes::tracing::SynthTrace::GetPropertyNativeReturnRecord", align 8
  store ptr %this, ptr %this.addr, align 8
  store ptr %that, ptr %that.addr, align 8
  %this1 = load ptr, ptr %this.addr, align 8
  %0 = load ptr, ptr %that.addr, align 8
  %call = call noundef zeroext i1 @_ZNK8facebook6hermes7tracing10SynthTrace6RecordeqERKS3_(ptr noundef nonnull align 8 dereferenceable(16) %this1, ptr noundef nonnull align 8 dereferenceable(16) %0)
  br i1 %call, label %if.end, label %if.then

if.then:                                          ; preds = %entry
  store i1 false, ptr %retval, align 1
  br label %return

if.end:                                           ; preds = %entry
  %1 = load ptr, ptr %that.addr, align 8
  %2 = call ptr @__dynamic_cast(ptr %1, ptr @_ZTIN8facebook6hermes7tracing10SynthTrace6RecordE, ptr @_ZTIN8facebook6hermes7tracing10SynthTrace29GetPropertyNativeReturnRecordE, i64 0) #13
  %3 = icmp eq ptr %2, null
  br i1 %3, label %dynamic_cast.bad_cast, label %dynamic_cast.end

dynamic_cast.bad_cast:                            ; preds = %if.end
  call void @__cxa_bad_cast() #17
  unreachable

dynamic_cast.end:                                 ; preds = %if.end
  call void @_ZN8facebook6hermes7tracing10SynthTrace29GetPropertyNativeReturnRecordC2ERKS3_(ptr noundef nonnull align 8 dereferenceable(32) %thatCasted, ptr noundef nonnull align 8 dereferenceable(32) %2) #13
  %add.ptr = getelementptr inbounds i8, ptr %this1, i64 16
  %add.ptr2 = getelementptr inbounds i8, ptr %thatCasted, i64 16
  %call3 = call noundef zeroext i1 @_ZNK8facebook6hermes7tracing10SynthTrace11ReturnMixineqERKS3_(ptr noundef nonnull align 8 dereferenceable(16) %add.ptr, ptr noundef nonnull align 8 dereferenceable(16) %add.ptr2)
  store i1 %call3, ptr %retval, align 1
  call void @_ZN8facebook6hermes7tracing10SynthTrace29GetPropertyNativeReturnRecordD2Ev(ptr noundef nonnull align 8 dereferenceable(32) %thatCasted) #13
  br label %return

return:                                           ; preds = %dynamic_cast.end, %if.then
  %4 = load i1, ptr %retval, align 1
  ret i1 %4
}